target datalayout = "e-m:e-p270:32:32-p271:32:32-p272:64:64-i64:64-i128:128-f80:128-n8:16:32:64-S128"
target triple = "x86_64-pc-linux-gnu"

%struct.H5A_dense_bt2_name_rec_t = type { %union.H5O_fheap_id_t, i8, i32, i32 }
%union.H5O_fheap_id_t = type { i64 }
%struct.H5A_fh_ud_cmp_t = type { ptr, ptr, ptr, ptr, ptr, i32 }
%struct.H5A_t = type { %struct.H5O_shared_t, %struct.H5O_loc_t, i8, %struct.H5G_name_t, ptr }
%struct.H5O_shared_t = type { i32, ptr, i32, %union.anon }
%union.anon = type { %struct.H5O_mesg_loc_t }
%struct.H5O_mesg_loc_t = type { i32, i64 }
%struct.H5O_loc_t = type { ptr, i64, i8 }
%struct.H5G_name_t = type { ptr, ptr, i32 }
%struct.H5A_shared_t = type { i8, ptr, i32, ptr, i64, ptr, i64, ptr, i64, i32, i32 }

@H5A_init_g = external global i8, align 1
@H5_libterm_g = external global i8, align 1
@.str.2 = private unnamed_addr constant [103 x i8] c"generated/home/dtcxzyw/WorkSpace/Projects/compilers/llvm-opt-benchmark/bench/hdf5/hdf5/src/H5Abtree2.c\00", align 1
@__func__.H5A__dense_fh_name_cmp = private unnamed_addr constant [23 x i8] c"H5A__dense_fh_name_cmp\00", align 1
@H5E_OHDR_g = external global i64, align 8
@H5E_CANTDECODE_g = external global i64, align 8
@.str.4 = private unnamed_addr constant [23 x i8] c"can't decode attribute\00", align 1
@H5E_CANTOPERATE_g = external global i64, align 8
@.str.5 = private unnamed_addr constant [32 x i8] c"attribute found callback failed\00", align 1

; Function Attrs: nounwind uwtable
define internal i32 @H5A__dense_fh_name_cmp(ptr noundef %0, i64 noundef %1, ptr noundef %2) #0 {
  %4 = alloca ptr, align 8
  %5 = alloca i64, align 8
  %6 = alloca ptr, align 8
  %7 = alloca ptr, align 8
  %8 = alloca ptr, align 8
  %9 = alloca i8, align 1
  %10 = alloca i32, align 4
  %11 = alloca i8, align 1
  store ptr %0, ptr %4, align 8, !tbaa !3
  store i64 %1, ptr %5, align 8, !tbaa !50
  store ptr %2, ptr %6, align 8, !tbaa !3
  call void @llvm.lifetime.start.p0(i64 8, ptr %7) #7
  %12 = load ptr, ptr %6, align 8, !tbaa !3
  store ptr %12, ptr %7, align 8, !tbaa !61
  call void @llvm.lifetime.start.p0(i64 8, ptr %8) #7
  store ptr null, ptr %8, align 8, !tbaa !63
  call void @llvm.lifetime.start.p0(i64 1, ptr %9) #7
  store i8 0, ptr %9, align 1, !tbaa !11
  call void @llvm.lifetime.start.p0(i64 4, ptr %10) #7
  store i32 0, ptr %10, align 4, !tbaa !34
  call void @llvm.lifetime.start.p0(i64 1, ptr %11) #7
  store i8 0, ptr %11, align 1, !tbaa !11
  %13 = load i8, ptr @H5A_init_g, align 1, !tbaa !11, !range !13, !noundef !14
  %14 = trunc i8 %13 to i1
  br i1 %14, label %19, label %15

15:                                               ; preds = %3
  %16 = load i8, ptr @H5_libterm_g, align 1, !tbaa !11, !range !13, !noundef !14
  %17 = trunc i8 %16 to i1
  %18 = xor i1 %17, true
  br label %19

19:                                               ; preds = %15, %3
  %20 = phi i1 [ true, %3 ], [ %18, %15 ]
  %21 = xor i1 %20, true
  %22 = xor i1 %21, true
  %23 = zext i1 %22 to i32
  %24 = sext i32 %23 to i64
  %25 = call i64 @llvm.expect.i64(i64 %24, i64 1)
  %26 = icmp ne i64 %25, 0
  br i1 %26, label %27, label %147

27:                                               ; preds = %19
  %28 = load ptr, ptr %7, align 8, !tbaa !61
  %29 = getelementptr inbounds nuw %struct.H5A_fh_ud_cmp_t, ptr %28, i32 0, i32 0
  %30 = load ptr, ptr %29, align 8, !tbaa !37
  %31 = load i64, ptr %5, align 8, !tbaa !50
  %32 = load ptr, ptr %4, align 8, !tbaa !3
  %33 = call ptr @H5O_msg_decode(ptr noundef %30, ptr noundef null, i32 noundef 12, i64 noundef %31, ptr noundef %32)
  store ptr %33, ptr %8, align 8, !tbaa !63
  %34 = icmp eq ptr null, %33
  br i1 %34, label %35, label %54

35:                                               ; preds = %27
  br label %36

36:                                               ; preds = %35
  br label %37

37:                                               ; preds = %36
  br label %38

38:                                               ; preds = %37
  %39 = load i64, ptr @H5E_OHDR_g, align 8, !tbaa !50
  %40 = load i64, ptr @H5E_CANTDECODE_g, align 8, !tbaa !50
  %41 = call i32 (ptr, ptr, i32, i64, i64, ptr, ...) @H5E_printf_stack(ptr noundef @.str.2, ptr noundef @__func__.H5A__dense_fh_name_cmp, i32 noundef 154, i64 noundef %39, i64 noundef %40, ptr noundef @.str.4)
  br label %42

42:                                               ; preds = %38
  br label %43

43:                                               ; preds = %42
  store i8 1, ptr %11, align 1, !tbaa !11
  %44 = load i8, ptr %11, align 1, !tbaa !11, !range !13, !noundef !14
  %45 = trunc i8 %44 to i1
  %46 = zext i1 %45 to i8
  store i8 %46, ptr %11, align 1, !tbaa !11
  br label %47

47:                                               ; preds = %43
  br label %48

48:                                               ; preds = %47
  br label %49

49:                                               ; preds = %48
  store i32 -1, ptr %10, align 4, !tbaa !34
  br label %137

50:                                               ; No predecessors!
  br label %51

51:                                               ; preds = %50
  br label %52

52:                                               ; preds = %51
  br label %53

53:                                               ; preds = %52
  br label %54

54:                                               ; preds = %53, %27
  %55 = load ptr, ptr %7, align 8, !tbaa !61
  %56 = getelementptr inbounds nuw %struct.H5A_fh_ud_cmp_t, ptr %55, i32 0, i32 1
  %57 = load ptr, ptr %56, align 8, !tbaa !40
  %58 = load ptr, ptr %8, align 8, !tbaa !63
  %59 = getelementptr inbounds nuw %struct.H5A_t, ptr %58, i32 0, i32 4
  %60 = load ptr, ptr %59, align 8, !tbaa !65
  %61 = getelementptr inbounds nuw %struct.H5A_shared_t, ptr %60, i32 0, i32 1
  %62 = load ptr, ptr %61, align 8, !tbaa !72
  %63 = call i32 @strcmp(ptr noundef %57, ptr noundef %62) #8
  %64 = load ptr, ptr %7, align 8, !tbaa !61
  %65 = getelementptr inbounds nuw %struct.H5A_fh_ud_cmp_t, ptr %64, i32 0, i32 5
  store i32 %63, ptr %65, align 8, !tbaa !46
  %66 = load ptr, ptr %7, align 8, !tbaa !61
  %67 = getelementptr inbounds nuw %struct.H5A_fh_ud_cmp_t, ptr %66, i32 0, i32 5
  %68 = load i32, ptr %67, align 8, !tbaa !46
  %69 = icmp eq i32 %68, 0
  br i1 %69, label %70, label %136

70:                                               ; preds = %54
  %71 = load ptr, ptr %7, align 8, !tbaa !61
  %72 = getelementptr inbounds nuw %struct.H5A_fh_ud_cmp_t, ptr %71, i32 0, i32 3
  %73 = load ptr, ptr %72, align 8, !tbaa !43
  %74 = icmp ne ptr %73, null
  br i1 %74, label %75, label %136

75:                                               ; preds = %70
  %76 = load ptr, ptr %7, align 8, !tbaa !61
  %77 = getelementptr inbounds nuw %struct.H5A_fh_ud_cmp_t, ptr %76, i32 0, i32 2
  %78 = load ptr, ptr %77, align 8, !tbaa !41
  %79 = getelementptr inbounds nuw %struct.H5A_dense_bt2_name_rec_t, ptr %78, i32 0, i32 1
  %80 = load i8, ptr %79, align 8, !tbaa !24
  %81 = zext i8 %80 to i32
  %82 = and i32 %81, 2
  %83 = icmp ne i32 %82, 0
  br i1 %83, label %84, label %97

84:                                               ; preds = %75
  %85 = load ptr, ptr %8, align 8, !tbaa !63
  %86 = getelementptr inbounds nuw %struct.H5A_t, ptr %85, i32 0, i32 0
  %87 = load ptr, ptr %7, align 8, !tbaa !61
  %88 = getelementptr inbounds nuw %struct.H5A_fh_ud_cmp_t, ptr %87, i32 0, i32 0
  %89 = load ptr, ptr %88, align 8, !tbaa !37
  %90 = load ptr, ptr %7, align 8, !tbaa !61
  %91 = getelementptr inbounds nuw %struct.H5A_fh_ud_cmp_t, ptr %90, i32 0, i32 2
  %92 = load ptr, ptr %91, align 8, !tbaa !41
  %93 = getelementptr inbounds nuw %struct.H5A_dense_bt2_name_rec_t, ptr %92, i32 0, i32 0
  %94 = getelementptr inbounds nuw %union.H5O_fheap_id_t, ptr %93, i32 0, i32 0
  %95 = load i64, ptr %94, align 8
  %96 = call i32 @H5SM_reconstitute(ptr noundef %86, ptr noundef %89, i32 noundef 12, i64 %95)
  br label %97

97:                                               ; preds = %84, %75
  %98 = load ptr, ptr %7, align 8, !tbaa !61
  %99 = getelementptr inbounds nuw %struct.H5A_fh_ud_cmp_t, ptr %98, i32 0, i32 2
  %100 = load ptr, ptr %99, align 8, !tbaa !41
  %101 = getelementptr inbounds nuw %struct.H5A_dense_bt2_name_rec_t, ptr %100, i32 0, i32 2
  %102 = load i32, ptr %101, align 4, !tbaa !27
  %103 = load ptr, ptr %8, align 8, !tbaa !63
  %104 = getelementptr inbounds nuw %struct.H5A_t, ptr %103, i32 0, i32 4
  %105 = load ptr, ptr %104, align 8, !tbaa !65
  %106 = getelementptr inbounds nuw %struct.H5A_shared_t, ptr %105, i32 0, i32 9
  store i32 %102, ptr %106, align 8, !tbaa !76
  %107 = load ptr, ptr %7, align 8, !tbaa !61
  %108 = getelementptr inbounds nuw %struct.H5A_fh_ud_cmp_t, ptr %107, i32 0, i32 3
  %109 = load ptr, ptr %108, align 8, !tbaa !43
  %110 = load ptr, ptr %8, align 8, !tbaa !63
  %111 = load ptr, ptr %7, align 8, !tbaa !61
  %112 = getelementptr inbounds nuw %struct.H5A_fh_ud_cmp_t, ptr %111, i32 0, i32 4
  %113 = load ptr, ptr %112, align 8, !tbaa !45
  %114 = call i32 %109(ptr noundef %110, ptr noundef %9, ptr noundef %113)
  %115 = icmp slt i32 %114, 0
  br i1 %115, label %116, label %135

116:                                              ; preds = %97
  br label %117

117:                                              ; preds = %116
  br label %118

118:                                              ; preds = %117
  br label %119

119:                                              ; preds = %118
  %120 = load i64, ptr @H5E_OHDR_g, align 8, !tbaa !50
  %121 = load i64, ptr @H5E_CANTOPERATE_g, align 8, !tbaa !50
  %122 = call i32 (ptr, ptr, i32, i64, i64, ptr, ...) @H5E_printf_stack(ptr noundef @.str.2, ptr noundef @__func__.H5A__dense_fh_name_cmp, i32 noundef 170, i64 noundef %120, i64 noundef %121, ptr noundef @.str.5)
  br label %123

123:                                              ; preds = %119
  br label %124

124:                                              ; preds = %123
  store i8 1, ptr %11, align 1, !tbaa !11
  %125 = load i8, ptr %11, align 1, !tbaa !11, !range !13, !noundef !14
  %126 = trunc i8 %125 to i1
  %127 = zext i1 %126 to i8
  store i8 %127, ptr %11, align 1, !tbaa !11
  br label %128

128:                                              ; preds = %124
  br label %129

129:                                              ; preds = %128
  br label %130

130:                                              ; preds = %129
  store i32 -1, ptr %10, align 4, !tbaa !34
  br label %137

131:                                              ; No predecessors!
  br label %132

132:                                              ; preds = %131
  br label %133

133:                                              ; preds = %132
  br label %134

134:                                              ; preds = %133
  br label %135

135:                                              ; preds = %134, %97
  br label %136

136:                                              ; preds = %135, %70, %54
  br label %137

137:                                              ; preds = %136, %130, %49
  %138 = load ptr, ptr %8, align 8, !tbaa !63
  %139 = icmp ne ptr %138, null
  br i1 %139, label %140, label %146

140:                                              ; preds = %137
  %141 = load i8, ptr %9, align 1, !tbaa !11, !range !13, !noundef !14
  %142 = trunc i8 %141 to i1
  br i1 %142, label %146, label %143

143:                                              ; preds = %140
  %144 = load ptr, ptr %8, align 8, !tbaa !63
  %145 = call ptr @H5O_msg_free(i32 noundef 12, ptr noundef %144)
  br label %146

146:                                              ; preds = %143, %140, %137
  br label %147

147:                                              ; preds = %146, %19
  %148 = load i32, ptr %10, align 4, !tbaa !34
  call void @llvm.lifetime.end.p0(i64 1, ptr %11) #7
  call void @llvm.lifetime.end.p0(i64 4, ptr %10) #7
  call void @llvm.lifetime.end.p0(i64 1, ptr %9) #7
  call void @llvm.lifetime.end.p0(i64 8, ptr %8) #7
  call void @llvm.lifetime.end.p0(i64 8, ptr %7) #7
  ret i32 %148
}